target datalayout = "e-m:e-p270:32:32-p271:32:32-p272:64:64-i64:64-i128:128-f80:128-n8:16:32:64-S128"
target triple = "x86_64-pc-linux-gnu"

%struct.Vec_Ptr_t_ = type { i32, i32, ptr }
%struct.Vec_Str_t_ = type { i32, i32, ptr }
%struct.Vec_Int_t_ = type { i32, i32, ptr }
%struct.Cba_Man_t_ = type { ptr, ptr, ptr, ptr, ptr, ptr, %struct.Vec_Int_t_, %struct.Vec_Int_t_, %struct.Vec_Int_t_, %struct.Vec_Int_t_, [90 x ptr], [90 x i32], [90 x i32], i32, %struct.Vec_Ptr_t_, i32, %struct.Vec_Str_t_, %struct.Vec_Str_t_, ptr }

; Function Attrs: nounwind uwtable
define internal ptr @Vec_PtrEntry(ptr noundef %0, i32 noundef %1) #0 {
  %3 = alloca ptr, align 8
  %4 = alloca i32, align 4
  store ptr %0, ptr %3, align 8
  store i32 %1, ptr %4, align 4
  %5 = load ptr, ptr %3, align 8
  %6 = getelementptr inbounds %struct.Vec_Ptr_t_, ptr %5, i32 0, i32 2
  %7 = load ptr, ptr %6, align 8
  %8 = load i32, ptr %4, align 4
  %9 = sext i32 %8 to i64
  %10 = getelementptr inbounds ptr, ptr %7, i64 %9
  %11 = load ptr, ptr %10, align 8
  ret ptr %11
}

; Function Attrs: nounwind uwtable
define internal i32 @Cba_ManNtkIsOk(ptr noundef %0, i32 noundef %1) #0 {
  %3 = alloca ptr, align 8
  %4 = alloca i32, align 4
  store ptr %0, ptr %3, align 8
  store i32 %1, ptr %4, align 4
  %5 = load i32, ptr %4, align 4
  %6 = icmp sgt i32 %5, 0
  br i1 %6, label %7, label %12

7:                                                ; preds = %2
  %8 = load i32, ptr %4, align 4
  %9 = load ptr, ptr %3, align 8
  %10 = call i32 @Cba_ManNtkNum(ptr noundef %9)
  %11 = icmp sle i32 %8, %10
  br label %12

12:                                               ; preds = %7, %2
  %13 = phi i1 [ false, %2 ], [ %11, %7 ]
  %14 = zext i1 %13 to i32
  ret i32 %14
}

; Function Attrs: nounwind uwtable
define internal i32 @Vec_PtrSize(ptr noundef %0) #0 {
  %2 = alloca ptr, align 8
  store ptr %0, ptr %2, align 8
  %3 = load ptr, ptr %2, align 8
  %4 = getelementptr inbounds %struct.Vec_Ptr_t_, ptr %3, i32 0, i32 1
  %5 = load i32, ptr %4, align 4
  ret i32 %5
}

; Function Attrs: nounwind uwtable
define internal ptr @Cba_ManNtk(ptr noundef %0, i32 noundef %1) #0 {
  %3 = alloca ptr, align 8
  %4 = alloca i32, align 4
  store ptr %0, ptr %3, align 8
  store i32 %1, ptr %4, align 4
  %5 = load ptr, ptr %3, align 8
  %6 = load i32, ptr %4, align 4
  %7 = call i32 @Cba_ManNtkIsOk(ptr noundef %5, i32 noundef %6)
  %8 = icmp ne i32 %7, 0
  br i1 %8, label %9, label %14

9:                                                ; preds = %2
  %10 = load ptr, ptr %3, align 8
  %11 = getelementptr inbounds %struct.Cba_Man_t_, ptr %10, i32 0, i32 14
  %12 = load i32, ptr %4, align 4
  %13 = call ptr @Vec_PtrEntry(ptr noundef %11, i32 noundef %12)
  br label %15

14:                                               ; preds = %2
  br label %15

15:                                               ; preds = %14, %9
  %16 = phi ptr [ %13, %9 ], [ null, %14 ]
  ret ptr %16
}

; Function Attrs: nounwind uwtable
define internal i32 @Cba_ManNtkNum(ptr noundef %0) #0 {
  %2 = alloca ptr, align 8
  store ptr %0, ptr %2, align 8
  %3 = load ptr, ptr %2, align 8
  %4 = getelementptr inbounds %struct.Cba_Man_t_, ptr %3, i32 0, i32 14
  %5 = call i32 @Vec_PtrSize(ptr noundef %4)
  %6 = sub nsw i32 %5, 1
  ret i32 %6
}

; Function Attrs: nounwind uwtable
define i32 @Cba_ManIsTopoOrder(ptr noundef %0) #0 {
  %2 = alloca i32, align 4
  %3 = alloca ptr, align 8
  %4 = alloca ptr, align 8
  %5 = alloca i32, align 4
  store ptr %0, ptr %3, align 8
  store i32 1, ptr %5, align 4
  br label %6

6:                                                ; preds = %23, %1
  %7 = load i32, ptr %5, align 4
  %8 = load ptr, ptr %3, align 8
  %9 = call i32 @Cba_ManNtkNum(ptr noundef %8)
  %10 = icmp sle i32 %7, %9
  br i1 %10, label %11, label %15

11:                                               ; preds = %6
  %12 = load ptr, ptr %3, align 8
  %13 = load i32, ptr %5, align 4
  %14 = call ptr @Cba_ManNtk(ptr noundef %12, i32 noundef %13)
  store ptr %14, ptr %4, align 8
  br label %15

15:                                               ; preds = %11, %6
  %16 = phi i1 [ false, %6 ], [ true, %11 ]
  br i1 %16, label %17, label %26

17:                                               ; preds = %15
  %18 = load ptr, ptr %4, align 8
  %19 = call i32 @Cba_NtkIsTopoOrder(ptr noundef %18)
  %20 = icmp ne i32 %19, 0
  br i1 %20, label %22, label %21

21:                                               ; preds = %17
  store i32 0, ptr %2, align 4
  br label %27

22:                                               ; preds = %17
  br label %23

23:                                               ; preds = %22
  %24 = load i32, ptr %5, align 4
  %25 = add nsw i32 %24, 1
  store i32 %25, ptr %5, align 4
  br label %6, !llvm.loop !38

26:                                               ; preds = %15
  store i32 1, ptr %2, align 4
  br label %27

27:                                               ; preds = %26, %21
  %28 = load i32, ptr %2, align 4
  ret i32 %28
}