; Function Attrs: nounwind uwtable
define range(i32 0, 2) i32 @Cba_ManIsTopoOrder(ptr noundef readonly captures(none) %0) local_unnamed_addr #1 {
  %2 = getelementptr i8, ptr %0, i64 1568
  %3 = getelementptr i8, ptr %0, i64 1564
  %.val8 = load i32, ptr %3, align 4
  %.not.not9 = icmp sgt i32 %.val8, 1
  br i1 %.not.not9, label %Cba_ManNtk.exit, label %.critedge

4:                                                ; preds = %Cba_ManNtk.exit
  %indvars.iv.next = add nuw nsw i64 %indvars.iv, 1
  %.val = load i32, ptr %3, align 4
  %5 = sext i32 %.val to i64
  %.not.not = icmp slt i64 %indvars.iv.next, %5
  br i1 %.not.not, label %Cba_ManNtk.exit, label %.critedge, !llvm.loop !41

Cba_ManNtk.exit:                                  ; preds = %1, %4
  %indvars.iv = phi i64 [ %indvars.iv.next, %4 ], [ 1, %1 ]
  %.val.i = load ptr, ptr %2, align 8
  %6 = getelementptr inbounds nuw ptr, ptr %.val.i, i64 %indvars.iv
  %7 = load ptr, ptr %6, align 8
  %8 = tail call i32 @Cba_NtkIsTopoOrder(ptr noundef %7)
  %.not7 = icmp eq i32 %8, 0
  br i1 %.not7, label %.critedge, label %4

.critedge:                                        ; preds = %Cba_ManNtk.exit, %4, %1
  %.06 = phi i32 [ 1, %1 ], [ 1, %4 ], [ 0, %Cba_ManNtk.exit ]
  ret i32 %.06
}